; ModuleID = 'source-C-CXX/52/1674.c'
source_filename = "source-C-CXX/52/1674.c"
target datalayout = "e-m:e-p270:32:32-p271:32:32-p272:64:64-i64:64-f80:128-n8:16:32:64-S128"
target triple = "x86_64-pc-linux-gnu"

@.str = private unnamed_addr constant [3 x i8] c"%d\00", align 1
@.str.2 = private unnamed_addr constant [4 x i8] c",%d\00", align 1

; Function Attrs: nofree nounwind sspstrong uwtable
define dso_local i32 @main() local_unnamed_addr #0 {
  %1 = alloca i32, align 4
  %2 = alloca [1000 x i32], align 16
  %3 = bitcast i32* %1 to i8*
  call void @llvm.lifetime.start.p0i8(i64 4, i8* nonnull %3) #5
  %4 = bitcast [1000 x i32]* %2 to i8*
  call void @llvm.lifetime.start.p0i8(i64 4000, i8* nonnull %4) #5
  %5 = call i32 (i8*, ...) @__isoc99_scanf(i8* getelementptr inbounds ([3 x i8], [3 x i8]* @.str, i64 0, i64 0), i32* nonnull %1)
  %6 = load i32, i32* %1, align 4, !tbaa !5
  %7 = icmp sgt i32 %6, 0
  br i1 %7, label %8, label %16

8:                                                ; preds = %0, %8
  %9 = phi i64 [ %12, %8 ], [ 0, %0 ]
  %10 = getelementptr inbounds [1000 x i32], [1000 x i32]* %2, i64 0, i64 %9
  %11 = call i32 (i8*, ...) @__isoc99_scanf(i8* getelementptr inbounds ([3 x i8], [3 x i8]* @.str, i64 0, i64 0), i32* nonnull %10)
  %12 = add nuw nsw i64 %9, 1
  %13 = load i32, i32* %1, align 4, !tbaa !5
  %14 = sext i32 %13 to i64
  %15 = icmp slt i64 %12, %14
  br i1 %15, label %8, label %16, !llvm.loop !9

16:                                               ; preds = %8, %0
  %17 = call i32 @putchar(i32 10)
  %18 = getelementptr inbounds [1000 x i32], [1000 x i32]* %2, i64 0, i64 0
  %19 = load i32, i32* %18, align 16, !tbaa !5
  %20 = call i32 (i8*, ...) @printf(i8* nonnull dereferenceable(1) getelementptr inbounds ([3 x i8], [3 x i8]* @.str, i64 0, i64 0), i32 %19)
  %21 = load i32, i32* %1, align 4, !tbaa !5
  %22 = icmp sgt i32 %21, 1
  br i1 %22, label %23, label %128

23:                                               ; preds = %16, %122
  %24 = phi i64 [ %127, %122 ], [ 0, %16 ]
  %25 = phi i32 [ %123, %122 ], [ %21, %16 ]
  %26 = phi i64 [ %124, %122 ], [ 1, %16 ]
  %27 = add i64 %24, -7
  %28 = lshr i64 %27, 3
  %29 = add nuw nsw i64 %28, 1
  %30 = add i64 %24, 1
  %31 = getelementptr inbounds [1000 x i32], [1000 x i32]* %2, i64 0, i64 %26
  %32 = load i32, i32* %31, align 4, !tbaa !5
  %33 = icmp ult i64 %30, 8
  br i1 %33, label %103, label %34

34:                                               ; preds = %23
  %35 = and i64 %30, -8
  %36 = insertelement <4 x i32> poison, i32 %32, i32 0
  %37 = shufflevector <4 x i32> %36, <4 x i32> poison, <4 x i32> zeroinitializer
  %38 = insertelement <4 x i32> poison, i32 %32, i32 0
  %39 = shufflevector <4 x i32> %38, <4 x i32> poison, <4 x i32> zeroinitializer
  %40 = and i64 %29, 1
  %41 = icmp ult i64 %27, 8
  br i1 %41, label %77, label %42

42:                                               ; preds = %34
  %43 = and i64 %29, 4611686018427387902
  br label %44

44:                                               ; preds = %44, %42
  %45 = phi i64 [ 0, %42 ], [ %74, %44 ]
  %46 = phi <4 x i32> [ zeroinitializer, %42 ], [ %72, %44 ]
  %47 = phi <4 x i32> [ zeroinitializer, %42 ], [ %73, %44 ]
  %48 = phi i64 [ %43, %42 ], [ %75, %44 ]
  %49 = getelementptr inbounds [1000 x i32], [1000 x i32]* %2, i64 0, i64 %45
  %50 = bitcast i32* %49 to <4 x i32>*
  %51 = load <4 x i32>, <4 x i32>* %50, align 16, !tbaa !5
  %52 = getelementptr inbounds i32, i32* %49, i64 4
  %53 = bitcast i32* %52 to <4 x i32>*
  %54 = load <4 x i32>, <4 x i32>* %53, align 16, !tbaa !5
  %55 = icmp eq <4 x i32> %51, %37
  %56 = icmp eq <4 x i32> %54, %39
  %57 = zext <4 x i1> %55 to <4 x i32>
  %58 = zext <4 x i1> %56 to <4 x i32>
  %59 = add <4 x i32> %46, %57
  %60 = add <4 x i32> %47, %58
  %61 = or i64 %45, 8
  %62 = getelementptr inbounds [1000 x i32], [1000 x i32]* %2, i64 0, i64 %61
  %63 = bitcast i32* %62 to <4 x i32>*
  %64 = load <4 x i32>, <4 x i32>* %63, align 16, !tbaa !5
  %65 = getelementptr inbounds i32, i32* %62, i64 4
  %66 = bitcast i32* %65 to <4 x i32>*
  %67 = load <4 x i32>, <4 x i32>* %66, align 16, !tbaa !5
  %68 = icmp eq <4 x i32> %64, %37
  %69 = icmp eq <4 x i32> %67, %39
  %70 = zext <4 x i1> %68 to <4 x i32>
  %71 = zext <4 x i1> %69 to <4 x i32>
  %72 = add <4 x i32> %59, %70
  %73 = add <4 x i32> %60, %71
  %74 = add nuw i64 %45, 16
  %75 = add i64 %48, -2
  %76 = icmp eq i64 %75, 0
  br i1 %76, label %77, label %44, !llvm.loop !11

77:                                               ; preds = %44, %34
  %78 = phi <4 x i32> [ undef, %34 ], [ %72, %44 ]
  %79 = phi <4 x i32> [ undef, %34 ], [ %73, %44 ]
  %80 = phi i64 [ 0, %34 ], [ %74, %44 ]
  %81 = phi <4 x i32> [ zeroinitializer, %34 ], [ %72, %44 ]
  %82 = phi <4 x i32> [ zeroinitializer, %34 ], [ %73, %44 ]
  %83 = icmp eq i64 %40, 0
  br i1 %83, label %97, label %84

84:                                               ; preds = %77
  %85 = getelementptr inbounds [1000 x i32], [1000 x i32]* %2, i64 0, i64 %80
  %86 = getelementptr inbounds i32, i32* %85, i64 4
  %87 = bitcast i32* %86 to <4 x i32>*
  %88 = load <4 x i32>, <4 x i32>* %87, align 16, !tbaa !5
  %89 = icmp eq <4 x i32> %88, %39
  %90 = zext <4 x i1> %89 to <4 x i32>
  %91 = add <4 x i32> %82, %90
  %92 = bitcast i32* %85 to <4 x i32>*
  %93 = load <4 x i32>, <4 x i32>* %92, align 16, !tbaa !5
  %94 = icmp eq <4 x i32> %93, %37
  %95 = zext <4 x i1> %94 to <4 x i32>
  %96 = add <4 x i32> %81, %95
  br label %97

97:                                               ; preds = %77, %84
  %98 = phi <4 x i32> [ %78, %77 ], [ %96, %84 ]
  %99 = phi <4 x i32> [ %79, %77 ], [ %91, %84 ]
  %100 = add <4 x i32> %99, %98
  %101 = call i32 @llvm.vector.reduce.add.v4i32(<4 x i32> %100)
  %102 = icmp eq i64 %30, %35
  br i1 %102, label %116, label %103

103:                                              ; preds = %23, %97
  %104 = phi i64 [ 0, %23 ], [ %35, %97 ]
  %105 = phi i32 [ 0, %23 ], [ %101, %97 ]
  br label %106

106:                                              ; preds = %103, %106
  %107 = phi i64 [ %114, %106 ], [ %104, %103 ]
  %108 = phi i32 [ %113, %106 ], [ %105, %103 ]
  %109 = getelementptr inbounds [1000 x i32], [1000 x i32]* %2, i64 0, i64 %107
  %110 = load i32, i32* %109, align 4, !tbaa !5
  %111 = icmp eq i32 %110, %32
  %112 = zext i1 %111 to i32
  %113 = add nuw nsw i32 %108, %112
  %114 = add nuw nsw i64 %107, 1
  %115 = icmp eq i64 %114, %26
  br i1 %115, label %116, label %106, !llvm.loop !13

116:                                              ; preds = %106, %97
  %117 = phi i32 [ %101, %97 ], [ %113, %106 ]
  %118 = icmp eq i32 %117, 0
  br i1 %118, label %119, label %122

119:                                              ; preds = %116
  %120 = call i32 (i8*, ...) @printf(i8* nonnull dereferenceable(1) getelementptr inbounds ([4 x i8], [4 x i8]* @.str.2, i64 0, i64 0), i32 %32)
  %121 = load i32, i32* %1, align 4, !tbaa !5
  br label %122

122:                                              ; preds = %116, %119
  %123 = phi i32 [ %25, %116 ], [ %121, %119 ]
  %124 = add nuw nsw i64 %26, 1
  %125 = sext i32 %123 to i64
  %126 = icmp slt i64 %124, %125
  %127 = add i64 %24, 1
  br i1 %126, label %23, label %128, !llvm.loop !15

128:                                              ; preds = %122, %16
  %129 = call i32 @putchar(i32 10)
  call void @llvm.lifetime.end.p0i8(i64 4000, i8* nonnull %4) #5
  call void @llvm.lifetime.end.p0i8(i64 4, i8* nonnull %3) #5
  ret i32 0
}

; Function Attrs: argmemonly mustprogress nofree nosync nounwind willreturn
declare void @llvm.lifetime.start.p0i8(i64 immarg, i8* nocapture) #1

; Function Attrs: nofree nounwind
declare noundef i32 @__isoc99_scanf(i8* nocapture noundef readonly, ...) local_unnamed_addr #2

; Function Attrs: nofree nounwind
declare noundef i32 @printf(i8* nocapture noundef readonly, ...) local_unnamed_addr #2

; Function Attrs: argmemonly mustprogress nofree nosync nounwind willreturn
declare void @llvm.lifetime.end.p0i8(i64 immarg, i8* nocapture) #1

; Function Attrs: nofree nounwind
declare noundef i32 @putchar(i32 noundef) local_unnamed_addr #3

; Function Attrs: nofree nosync nounwind readnone willreturn
declare i32 @llvm.vector.reduce.add.v4i32(<4 x i32>) #4


!llvm.module.flags = !{!0, !1, !2, !3}
!llvm.ident = !{!4}

!0 = !{i32 1, !"wchar_size", i32 4}
!1 = !{i32 7, !"PIC Level", i32 2}
!2 = !{i32 7, !"PIE Level", i32 2}
!3 = !{i32 7, !"uwtable", i32 1}
!4 = !{!"clang version 13.0.0"}
!5 = !{!6, !6, i64 0}
!6 = !{!"int", !7, i64 0}
!7 = !{!"omnipotent char", !8, i64 0}
!8 = !{!"Simple C/C++ TBAA"}
!9 = distinct !{!9, !10}
!10 = !{!"llvm.loop.mustprogress"}
!11 = distinct !{!11, !10, !12}
!12 = !{!"llvm.loop.isvectorized", i32 1}
!13 = distinct !{!13, !10, !14, !12}
!14 = !{!"llvm.loop.unroll.runtime.disable"}
!15 = distinct !{!15, !10}
